target datalayout = "e-m:e-p270:32:32-p271:32:32-p272:64:64-i64:64-i128:128-f80:128-n8:16:32:64-S128"
target triple = "x86_64-pc-linux-gnu"

%struct.slurm_opt_t = type { ptr, ptr, ptr, ptr, ptr, ptr, ptr, ptr, i32, ptr, ptr, ptr, ptr, i32, i32, ptr, i32, i8, i8, i32, i8, i32, i32, ptr, i8, i32, i32, i64, i32, i32, i32, i32, i32, i32, ptr, i32, ptr, i8, i32, i32, ptr, i32, i32, i32, ptr, ptr, i32, i32, ptr, ptr, ptr, i32, i16, i16, i16, i8, i8, ptr, i8, i16, ptr, ptr, i32, i32, i32, ptr, ptr, ptr, ptr, ptr, ptr, i32, i64, i64, i64, i16, i64, ptr, ptr, ptr, ptr, ptr, ptr, ptr, i8, ptr, ptr, ptr, ptr, i8, i64, ptr, i16, ptr, i32, i32, ptr, ptr, i32, i32, i32, ptr, i32, i32, i32, i32, i32, ptr, i64, i32, i16, i32, ptr, ptr, ptr, ptr, ptr, i16, ptr, ptr, i16, i8, ptr, ptr, ptr, ptr }
%struct.srun_opt_t = type { i16, ptr, ptr, ptr, i8, ptr, i16, i8, ptr, i32, i8, i8, i8, ptr, i8, i8, i8, i32, i32, i32, i8, i32, i32, i32, ptr, i8, i32, i8, i8, ptr, ptr, i32, i8, i8, ptr, ptr, ptr, i8, i32, i8, i32, ptr, ptr, i8, i8, i16, i8, i8 }
%struct.slurm_step_id_msg = type { i64, i32, i32, i32 }
%struct.srun_job = type { %struct.slurm_step_id_msg, i32, i32, ptr, i32, i32, i32, i32, ptr, ptr, ptr, ptr, i32, i32, i32, i16, i16, i16, i16, i32, %union.pthread_mutex_t, %union.pthread_cond_t, i32, ptr, ptr, ptr, ptr, ptr, ptr, i32, i16, i16, i16, ptr, ptr, ptr, ptr, i32, ptr, i32, ptr }
%union.pthread_mutex_t = type { %struct.__pthread_mutex_s }
%struct.__pthread_mutex_s = type { i32, i32, i32, i32, i32, i16, i16, %struct.__pthread_internal_list }
%struct.__pthread_internal_list = type { ptr, ptr }
%union.pthread_cond_t = type { %struct.__pthread_cond_s }
%struct.__pthread_cond_s = type { %union.__atomic_wide_counter, %union.__atomic_wide_counter, [2 x i32], [2 x i32], i32, i32, [2 x i32] }
%union.__atomic_wide_counter = type { i64 }
%union.pthread_attr_t = type { i64, [48 x i8] }
%struct.spank_launcher_job_info = type { i32, i32, i32, i32, ptr, i32, ptr }

@error_exit = external global i32, align 4
@sropt = external global %struct.srun_opt_t, align 8
@signal_thread = internal global i64 0, align 8
@.str.33 = private unnamed_addr constant [22 x i8] c"pthread_attr_init: %m\00", align 1
@.str.34 = private unnamed_addr constant [26 x i8] c"pthread_attr_setscope: %m\00", align 1
@.str.35 = private unnamed_addr constant [30 x i8] c"pthread_attr_setstacksize: %m\00", align 1
@.str.36 = private unnamed_addr constant [28 x i8] c"%s: pthread_create error %m\00", align 1
@__func__.pre_launch_srun_job = private unnamed_addr constant [20 x i8] c"pre_launch_srun_job\00", align 1
@.str.37 = private unnamed_addr constant [55 x i8] c"pthread_attr_destroy failed, possible memory leak!: %m\00", align 1
@.str.38 = private unnamed_addr constant [30 x i8] c"Failure in local plugin stack\00", align 1
@environ = external global ptr, align 8
@.str.69 = private unnamed_addr constant [5 x i8] c"none\00", align 1
@.str.70 = private unnamed_addr constant [21 x i8] c"SLURM_SCRIPT_CONTEXT\00", align 1
@.str.72 = private unnamed_addr constant [50 x i8] c"unable to set SLURM_SCRIPT_CONTEXT in environment\00", align 1
@.str.79 = private unnamed_addr constant [12 x i8] c"prolog_srun\00", align 1
@.str.80 = private unnamed_addr constant [43 x i8] c"srun prolog failed rc = %d. Aborting step.\00", align 1

; Function Attrs: nounwind uwtable
define internal i32 @_call_spank_local_user(ptr noundef %0, ptr noundef %1) #0 {
  %3 = alloca ptr, align 8
  %4 = alloca ptr, align 8
  %5 = alloca [1 x %struct.spank_launcher_job_info], align 16
  store ptr %0, ptr %3, align 8
  store ptr %1, ptr %4, align 8
  call void @llvm.lifetime.start.p0(i64 40, ptr %5) #10
  %6 = load ptr, ptr %4, align 8
  %7 = getelementptr inbounds nuw %struct.slurm_opt_t, ptr %6, i32 0, i32 8
  %8 = load i32, ptr %7, align 8
  %9 = getelementptr inbounds [1 x %struct.spank_launcher_job_info], ptr %5, i64 0, i64 0
  %10 = getelementptr inbounds nuw %struct.spank_launcher_job_info, ptr %9, i32 0, i32 5
  store i32 %8, ptr %10, align 8
  %11 = load ptr, ptr %4, align 8
  %12 = getelementptr inbounds nuw %struct.slurm_opt_t, ptr %11, i32 0, i32 9
  %13 = load ptr, ptr %12, align 8
  %14 = getelementptr inbounds [1 x %struct.spank_launcher_job_info], ptr %5, i64 0, i64 0
  %15 = getelementptr inbounds nuw %struct.spank_launcher_job_info, ptr %14, i32 0, i32 6
  store ptr %13, ptr %15, align 16
  %16 = load ptr, ptr %4, align 8
  %17 = getelementptr inbounds nuw %struct.slurm_opt_t, ptr %16, i32 0, i32 14
  %18 = load i32, ptr %17, align 4
  %19 = getelementptr inbounds [1 x %struct.spank_launcher_job_info], ptr %5, i64 0, i64 0
  %20 = getelementptr inbounds nuw %struct.spank_launcher_job_info, ptr %19, i32 0, i32 1
  store i32 %18, ptr %20, align 4
  %21 = load ptr, ptr %3, align 8
  %22 = getelementptr inbounds nuw %struct.srun_job, ptr %21, i32 0, i32 0
  %23 = getelementptr inbounds nuw %struct.slurm_step_id_msg, ptr %22, i32 0, i32 1
  %24 = load i32, ptr %23, align 8
  %25 = getelementptr inbounds [1 x %struct.spank_launcher_job_info], ptr %5, i64 0, i64 0
  %26 = getelementptr inbounds nuw %struct.spank_launcher_job_info, ptr %25, i32 0, i32 2
  store i32 %24, ptr %26, align 8
  %27 = load ptr, ptr %3, align 8
  %28 = getelementptr inbounds nuw %struct.srun_job, ptr %27, i32 0, i32 0
  %29 = getelementptr inbounds nuw %struct.slurm_step_id_msg, ptr %28, i32 0, i32 3
  %30 = load i32, ptr %29, align 8
  %31 = getelementptr inbounds [1 x %struct.spank_launcher_job_info], ptr %5, i64 0, i64 0
  %32 = getelementptr inbounds nuw %struct.spank_launcher_job_info, ptr %31, i32 0, i32 3
  store i32 %30, ptr %32, align 4
  %33 = load ptr, ptr %3, align 8
  %34 = call ptr @launch_common_get_slurm_step_layout(ptr noundef %33)
  %35 = getelementptr inbounds [1 x %struct.spank_launcher_job_info], ptr %5, i64 0, i64 0
  %36 = getelementptr inbounds nuw %struct.spank_launcher_job_info, ptr %35, i32 0, i32 4
  store ptr %34, ptr %36, align 16
  %37 = load ptr, ptr %4, align 8
  %38 = getelementptr inbounds nuw %struct.slurm_opt_t, ptr %37, i32 0, i32 13
  %39 = load i32, ptr %38, align 8
  %40 = getelementptr inbounds [1 x %struct.spank_launcher_job_info], ptr %5, i64 0, i64 0
  %41 = getelementptr inbounds nuw %struct.spank_launcher_job_info, ptr %40, i32 0, i32 0
  store i32 %39, ptr %41, align 16
  %42 = getelementptr inbounds [1 x %struct.spank_launcher_job_info], ptr %5, i64 0, i64 0
  %43 = call i32 @spank_local_user(ptr noundef %42)
  call void @llvm.lifetime.end.p0(i64 40, ptr %5) #10
  ret i32 %43
}

; Function Attrs: nounwind uwtable
define internal void @_run_srun_prolog(ptr noundef %0) #0 {
  %2 = alloca ptr, align 8
  %3 = alloca i32, align 4
  store ptr %0, ptr %2, align 8
  call void @llvm.lifetime.start.p0(i64 4, ptr %3) #10
  %4 = load ptr, ptr getelementptr inbounds nuw (%struct.srun_opt_t, ptr @sropt, i32 0, i32 34), align 8
  %5 = icmp ne ptr %4, null
  br i1 %5, label %6, label %28

6:                                                ; preds = %1
  %7 = load ptr, ptr getelementptr inbounds nuw (%struct.srun_opt_t, ptr @sropt, i32 0, i32 34), align 8
  %8 = call i32 @xstrcasecmp(ptr noundef %7, ptr noundef @.str.69)
  %9 = icmp ne i32 %8, 0
  br i1 %9, label %10, label %28

10:                                               ; preds = %6
  %11 = call i32 (ptr, ptr, ptr, ...) @setenvf(ptr noundef null, ptr noundef @.str.70, ptr noundef @.str.79)
  %12 = icmp slt i32 %11, 0
  br i1 %12, label %13, label %15

13:                                               ; preds = %10
  %14 = call i32 (ptr, ...) @error(ptr noundef @.str.72)
  br label %15

15:                                               ; preds = %13, %10
  %16 = load ptr, ptr %2, align 8
  %17 = load ptr, ptr getelementptr inbounds nuw (%struct.srun_opt_t, ptr @sropt, i32 0, i32 34), align 8
  %18 = call i32 @_run_srun_script(ptr noundef %16, ptr noundef %17)
  store i32 %18, ptr %3, align 4
  %19 = load i32, ptr %3, align 4
  %20 = icmp ne i32 %19, 0
  br i1 %20, label %21, label %27

21:                                               ; preds = %15
  %22 = load i32, ptr %3, align 4
  %23 = call i32 (ptr, ...) @error(ptr noundef @.str.80, i32 noundef %22)
  %24 = load ptr, ptr %2, align 8
  %25 = getelementptr inbounds nuw %struct.srun_job, ptr %24, i32 0, i32 33
  %26 = load ptr, ptr %25, align 8
  call void @slurm_step_launch_abort(ptr noundef %26)
  br label %27

27:                                               ; preds = %21, %15
  br label %28

28:                                               ; preds = %27, %6, %1
  call void @llvm.lifetime.end.p0(i64 4, ptr %3) #10
  ret void
}

; Function Attrs: nounwind uwtable
define dso_local void @pre_launch_srun_job(ptr noundef %0, ptr noundef %1) #0 {
  %3 = alloca ptr, align 8
  %4 = alloca ptr, align 8
  %5 = alloca %union.pthread_attr_t, align 8
  %6 = alloca i32, align 4
  %7 = alloca i32, align 4
  %8 = alloca i32, align 4
  store ptr %0, ptr %3, align 8
  store ptr %1, ptr %4, align 8
  %9 = load i64, ptr @signal_thread, align 8
  %10 = icmp ne i64 %9, 0
  br i1 %10, label %59, label %11

11:                                               ; preds = %2
  br label %12

12:                                               ; preds = %11
  call void @llvm.lifetime.start.p0(i64 56, ptr %5) #10
  call void @llvm.lifetime.start.p0(i64 4, ptr %6) #10
  br label %13

13:                                               ; preds = %12
  call void @llvm.lifetime.start.p0(i64 4, ptr %7) #10
  %14 = call i32 @pthread_attr_init(ptr noundef %5) #10
  store i32 %14, ptr %7, align 4
  %15 = load i32, ptr %7, align 4
  %16 = icmp ne i32 %15, 0
  br i1 %16, label %17, label %20

17:                                               ; preds = %13
  %18 = load i32, ptr %7, align 4
  %19 = call ptr @__errno_location() #11
  store i32 %18, ptr %19, align 4
  call void (ptr, ...) @fatal(ptr noundef @.str.33) #12
  unreachable

20:                                               ; preds = %13
  %21 = call i32 @pthread_attr_setscope(ptr noundef %5, i32 noundef 0) #10
  store i32 %21, ptr %7, align 4
  %22 = load i32, ptr %7, align 4
  %23 = icmp ne i32 %22, 0
  br i1 %23, label %24, label %28

24:                                               ; preds = %20
  %25 = load i32, ptr %7, align 4
  %26 = call ptr @__errno_location() #11
  store i32 %25, ptr %26, align 4
  %27 = call i32 (ptr, ...) @error(ptr noundef @.str.34)
  br label %28

28:                                               ; preds = %24, %20
  %29 = call i32 @pthread_attr_setstacksize(ptr noundef %5, i64 noundef 1048576) #10
  store i32 %29, ptr %7, align 4
  %30 = load i32, ptr %7, align 4
  %31 = icmp ne i32 %30, 0
  br i1 %31, label %32, label %36

32:                                               ; preds = %28
  %33 = load i32, ptr %7, align 4
  %34 = call ptr @__errno_location() #11
  store i32 %33, ptr %34, align 4
  %35 = call i32 (ptr, ...) @error(ptr noundef @.str.35)
  br label %36

36:                                               ; preds = %32, %28
  call void @llvm.lifetime.end.p0(i64 4, ptr %7) #10
  br label %37

37:                                               ; preds = %36
  br label %38

38:                                               ; preds = %37
  %39 = load ptr, ptr %3, align 8
  %40 = call i32 @pthread_create(ptr noundef @signal_thread, ptr noundef %5, ptr noundef @_srun_signal_mgr, ptr noundef %39) #10
  store i32 %40, ptr %6, align 4
  %41 = load i32, ptr %6, align 4
  %42 = icmp ne i32 %41, 0
  br i1 %42, label %43, label %46

43:                                               ; preds = %38
  %44 = load i32, ptr %6, align 4
  %45 = call ptr @__errno_location() #11
  store i32 %44, ptr %45, align 4
  call void (ptr, ...) @fatal(ptr noundef @.str.36, ptr noundef @__func__.pre_launch_srun_job) #12
  unreachable

46:                                               ; preds = %38
  br label %47

47:                                               ; preds = %46
  call void @llvm.lifetime.start.p0(i64 4, ptr %8) #10
  %48 = call i32 @pthread_attr_destroy(ptr noundef %5) #10
  store i32 %48, ptr %8, align 4
  %49 = load i32, ptr %8, align 4
  %50 = icmp ne i32 %49, 0
  br i1 %50, label %51, label %55

51:                                               ; preds = %47
  %52 = load i32, ptr %8, align 4
  %53 = call ptr @__errno_location() #11
  store i32 %52, ptr %53, align 4
  %54 = call i32 (ptr, ...) @error(ptr noundef @.str.37)
  br label %55

55:                                               ; preds = %51, %47
  call void @llvm.lifetime.end.p0(i64 4, ptr %8) #10
  br label %56

56:                                               ; preds = %55
  br label %57

57:                                               ; preds = %56
  call void @llvm.lifetime.end.p0(i64 4, ptr %6) #10
  call void @llvm.lifetime.end.p0(i64 56, ptr %5) #10
  br label %58

58:                                               ; preds = %57
  br label %59

59:                                               ; preds = %58, %2
  %60 = load ptr, ptr %3, align 8
  call void @_run_srun_prolog(ptr noundef %60)
  %61 = load ptr, ptr %3, align 8
  %62 = load ptr, ptr %4, align 8
  %63 = call i32 @_call_spank_local_user(ptr noundef %61, ptr noundef %62)
  %64 = icmp slt i32 %63, 0
  br i1 %64, label %65, label %71

65:                                               ; preds = %59
  %66 = call i32 (ptr, ...) @error(ptr noundef @.str.38)
  %67 = load ptr, ptr %3, align 8
  %68 = getelementptr inbounds nuw %struct.srun_job, ptr %67, i32 0, i32 33
  %69 = load ptr, ptr %68, align 8
  call void @slurm_step_launch_abort(ptr noundef %69)
  %70 = load i32, ptr @error_exit, align 4
  call void @exit(i32 noundef %70) #13
  unreachable

71:                                               ; preds = %59
  %72 = load ptr, ptr %3, align 8
  %73 = getelementptr inbounds nuw %struct.srun_job, ptr %72, i32 0, i32 23
  %74 = load ptr, ptr @environ, align 8
  call void @env_array_merge(ptr noundef %73, ptr noundef %74)
  ret void
}