; Function Attrs: nounwind uwtable
define dso_local void @pre_launch_srun_job(ptr noundef %0, ptr noundef readonly captures(none) %1) local_unnamed_addr #0 {
  %3 = alloca [1 x %struct.spank_launcher_job_info], align 16
  %4 = alloca %union.pthread_attr_t, align 8
  %5 = load i64, ptr @signal_thread, align 8
  %.not = icmp eq i64 %5, 0
  br i1 %.not, label %6, label %30

6:                                                ; preds = %2
  call void @llvm.lifetime.start.p0(i64 56, ptr nonnull %4) #15
  %7 = call i32 @pthread_attr_init(ptr noundef nonnull %4) #15
  %.not19 = icmp eq i32 %7, 0
  br i1 %.not19, label %10, label %8

8:                                                ; preds = %6
  %9 = tail call ptr @__errno_location() #16
  store i32 %7, ptr %9, align 4
  call void (ptr, ...) @fatal(ptr noundef nonnull @.str.33) #17
  unreachable

10:                                               ; preds = %6
  %11 = call i32 @pthread_attr_setscope(ptr noundef nonnull %4, i32 noundef 0) #15
  %.not20 = icmp eq i32 %11, 0
  br i1 %.not20, label %15, label %12

12:                                               ; preds = %10
  %13 = tail call ptr @__errno_location() #16
  store i32 %11, ptr %13, align 4
  %14 = call i32 (ptr, ...) @error(ptr noundef nonnull @.str.34) #15
  br label %15

15:                                               ; preds = %12, %10
  %16 = call i32 @pthread_attr_setstacksize(ptr noundef nonnull %4, i64 noundef 1048576) #15
  %.not21 = icmp eq i32 %16, 0
  br i1 %.not21, label %20, label %17

17:                                               ; preds = %15
  %18 = tail call ptr @__errno_location() #16
  store i32 %16, ptr %18, align 4
  %19 = call i32 (ptr, ...) @error(ptr noundef nonnull @.str.35) #15
  br label %20

20:                                               ; preds = %17, %15
  %21 = call i32 @pthread_create(ptr noundef nonnull @signal_thread, ptr noundef nonnull %4, ptr noundef nonnull @_srun_signal_mgr, ptr noundef %0) #15
  %.not22 = icmp eq i32 %21, 0
  br i1 %.not22, label %24, label %22

22:                                               ; preds = %20
  %23 = tail call ptr @__errno_location() #16
  store i32 %21, ptr %23, align 4
  call void (ptr, ...) @fatal(ptr noundef nonnull @.str.36, ptr noundef nonnull @__func__.pre_launch_srun_job) #17
  unreachable

24:                                               ; preds = %20
  %25 = call i32 @pthread_attr_destroy(ptr noundef nonnull %4) #15
  %.not23 = icmp eq i32 %25, 0
  br i1 %.not23, label %29, label %26

26:                                               ; preds = %24
  %27 = tail call ptr @__errno_location() #16
  store i32 %25, ptr %27, align 4
  %28 = call i32 (ptr, ...) @error(ptr noundef nonnull @.str.37) #15
  br label %29

29:                                               ; preds = %26, %24
  call void @llvm.lifetime.end.p0(i64 56, ptr nonnull %4) #15
  br label %30

30:                                               ; preds = %29, %2
  %31 = load ptr, ptr getelementptr inbounds nuw (i8, ptr @sropt, i64 160), align 8
  %.not.i = icmp eq ptr %31, null
  br i1 %.not.i, label %_run_srun_prolog.exit, label %32

32:                                               ; preds = %30
  %33 = call i32 @xstrcasecmp(ptr noundef nonnull %31, ptr noundef nonnull @.str.69) #15
  %.not4.i = icmp eq i32 %33, 0
  br i1 %.not4.i, label %_run_srun_prolog.exit, label %34

34:                                               ; preds = %32
  %35 = call i32 (ptr, ptr, ptr, ...) @setenvf(ptr noundef null, ptr noundef nonnull @.str.70, ptr noundef nonnull @.str.79) #15
  %36 = icmp slt i32 %35, 0
  br i1 %36, label %37, label %39

37:                                               ; preds = %34
  %38 = call i32 (ptr, ...) @error(ptr noundef nonnull @.str.72) #15
  br label %39

39:                                               ; preds = %37, %34
  %40 = load ptr, ptr getelementptr inbounds nuw (i8, ptr @sropt, i64 160), align 8
  %41 = call fastcc i32 @_run_srun_script(ptr noundef %40)
  %.not5.i = icmp eq i32 %41, 0
  br i1 %.not5.i, label %_run_srun_prolog.exit, label %42

42:                                               ; preds = %39
  %43 = call i32 (ptr, ...) @error(ptr noundef nonnull @.str.80, i32 noundef %41) #15
  %44 = getelementptr inbounds nuw i8, ptr %0, i64 272
  %45 = load ptr, ptr %44, align 8
  call void @slurm_step_launch_abort(ptr noundef %45) #15
  br label %_run_srun_prolog.exit

_run_srun_prolog.exit:                            ; preds = %30, %32, %39, %42
  call void @llvm.lifetime.start.p0(i64 40, ptr nonnull %3) #15
  %46 = getelementptr inbounds nuw i8, ptr %1, i64 64
  %47 = load i32, ptr %46, align 8
  %48 = getelementptr inbounds nuw i8, ptr %3, i64 24
  store i32 %47, ptr %48, align 8
  %49 = getelementptr inbounds nuw i8, ptr %1, i64 72
  %50 = load ptr, ptr %49, align 8
  %51 = getelementptr inbounds nuw i8, ptr %3, i64 32
  store ptr %50, ptr %51, align 16
  %52 = getelementptr inbounds nuw i8, ptr %1, i64 108
  %53 = load i32, ptr %52, align 4
  %54 = getelementptr inbounds nuw i8, ptr %3, i64 4
  store i32 %53, ptr %54, align 4
  %55 = getelementptr inbounds nuw i8, ptr %0, i64 8
  %56 = load i32, ptr %55, align 8
  %57 = getelementptr inbounds nuw i8, ptr %3, i64 8
  store i32 %56, ptr %57, align 8
  %58 = getelementptr inbounds nuw i8, ptr %0, i64 16
  %59 = load i32, ptr %58, align 8
  %60 = getelementptr inbounds nuw i8, ptr %3, i64 12
  store i32 %59, ptr %60, align 4
  %61 = call ptr @launch_common_get_slurm_step_layout(ptr noundef %0) #15
  %62 = getelementptr inbounds nuw i8, ptr %3, i64 16
  store ptr %61, ptr %62, align 16
  %63 = getelementptr inbounds nuw i8, ptr %1, i64 104
  %64 = load i32, ptr %63, align 8
  store i32 %64, ptr %3, align 16
  %65 = call i32 @spank_local_user(ptr noundef nonnull %3) #15
  call void @llvm.lifetime.end.p0(i64 40, ptr nonnull %3) #15
  %66 = icmp slt i32 %65, 0
  br i1 %66, label %67, label %72

67:                                               ; preds = %_run_srun_prolog.exit
  %68 = call i32 (ptr, ...) @error(ptr noundef nonnull @.str.38) #15
  %69 = getelementptr inbounds nuw i8, ptr %0, i64 272
  %70 = load ptr, ptr %69, align 8
  call void @slurm_step_launch_abort(ptr noundef %70) #15
  %71 = load i32, ptr @error_exit, align 4
  call void @exit(i32 noundef %71) #17
  unreachable

72:                                               ; preds = %_run_srun_prolog.exit
  %73 = getelementptr inbounds nuw i8, ptr %0, i64 208
  %74 = load ptr, ptr @environ, align 8
  call void @env_array_merge(ptr noundef nonnull %73, ptr noundef %74) #15
  ret void
}